; Function Attrs: mustprogress uwtable
define void @_ZNK32pxrInternal_v0_24__pxrReserved__13UsdGeomSubset9_GetEdgesENS_11UsdTimeCodeE(ptr dead_on_unwind noalias nonnull writable sret(%"class.pxrInternal_v0_24__pxrReserved__::VtArray.98") align 8 %0, ptr noundef nonnull align 8 dereferenceable(24) %1, double %2) local_unnamed_addr #0 align 2 personality ptr @__gxx_personality_v0 {
  %4 = alloca %"class.pxrInternal_v0_24__pxrReserved__::VtArray", align 8
  %5 = alloca %"class.pxrInternal_v0_24__pxrReserved__::UsdAttribute", align 8
  %6 = alloca %"class.pxrInternal_v0_24__pxrReserved__::GfVec2i", align 4
  tail call void @_ZN32pxrInternal_v0_24__pxrReserved__7VtArrayINS_7GfVec2iEEC1Ev(ptr noundef nonnull align 8 dereferenceable(40) %0)
  invoke void @_ZN32pxrInternal_v0_24__pxrReserved__7VtArrayIiEC1Ev(ptr noundef nonnull align 8 dereferenceable(40) %4)
          to label %7 unwind label %63

7:                                                ; preds = %3
  invoke void @_ZNK32pxrInternal_v0_24__pxrReserved__13UsdGeomSubset14GetIndicesAttrEv(ptr dead_on_unwind nonnull writable sret(%"class.pxrInternal_v0_24__pxrReserved__::UsdAttribute") align 8 %5, ptr noundef nonnull align 8 dereferenceable(24) %1)
          to label %8 unwind label %.loopexit.split-lp

8:                                                ; preds = %7
  %9 = invoke noundef zeroext i1 @_ZNK32pxrInternal_v0_24__pxrReserved__12UsdAttribute4_GetINS_7VtArrayIiEEEEbPT_NS_11UsdTimeCodeE(ptr noundef nonnull align 8 dereferenceable(32) %5, ptr noundef nonnull %4, double %2)
          to label %_ZNK32pxrInternal_v0_24__pxrReserved__12UsdAttribute3GetINS_7VtArrayIiEEEEbPT_NS_11UsdTimeCodeE.exit unwind label %65

_ZNK32pxrInternal_v0_24__pxrReserved__12UsdAttribute3GetINS_7VtArrayIiEEEEbPT_NS_11UsdTimeCodeE.exit: ; preds = %8
  %10 = getelementptr inbounds nuw i8, ptr %5, i64 24
  %11 = load ptr, ptr %10, align 8
  %12 = ptrtoint ptr %11 to i64
  %13 = and i64 %12, 7
  %.not.i.i.i.i.i = icmp eq i64 %13, 0
  br i1 %.not.i.i.i.i.i, label %_ZN32pxrInternal_v0_24__pxrReserved__7TfTokenD2Ev.exit.i.i.i, label %14

14:                                               ; preds = %_ZNK32pxrInternal_v0_24__pxrReserved__12UsdAttribute3GetINS_7VtArrayIiEEEEbPT_NS_11UsdTimeCodeE.exit
  %15 = and i64 %12, -8
  %16 = inttoptr i64 %15 to ptr
  %17 = atomicrmw sub ptr %16, i32 2 release, align 4
  br label %_ZN32pxrInternal_v0_24__pxrReserved__7TfTokenD2Ev.exit.i.i.i

_ZN32pxrInternal_v0_24__pxrReserved__7TfTokenD2Ev.exit.i.i.i: ; preds = %14, %_ZNK32pxrInternal_v0_24__pxrReserved__12UsdAttribute3GetINS_7VtArrayIiEEEEbPT_NS_11UsdTimeCodeE.exit
  %18 = getelementptr inbounds nuw i8, ptr %5, i64 16
  %19 = load i32, ptr %18, align 8
  %.not.i.i1.i.i.i = icmp eq i32 %19, 0
  br i1 %.not.i.i1.i.i.i, label %_ZN32pxrInternal_v0_24__pxrReserved__7SdfPathD2Ev.exit.i.i.i, label %20

20:                                               ; preds = %_ZN32pxrInternal_v0_24__pxrReserved__7TfTokenD2Ev.exit.i.i.i
  %21 = and i32 %19, 255
  %22 = lshr i32 %19, 8
  %23 = zext nneg i32 %21 to i64
  %24 = getelementptr inbounds nuw [257 x ptr], ptr @_ZN32pxrInternal_v0_24__pxrReserved__8Sdf_PoolINS_15Sdf_PathPrimTagELj24ELj8ELj16384EE13_regionStartsE, i64 0, i64 %23
  %25 = load ptr, ptr %24, align 8
  %26 = mul nuw nsw i32 %22, 24
  %27 = zext nneg i32 %26 to i64
  %28 = getelementptr inbounds nuw i8, ptr %25, i64 %27
  %29 = getelementptr inbounds nuw i8, ptr %28, i64 8
  %30 = atomicrmw sub ptr %29, i32 1 seq_cst, align 4
  %31 = and i32 %30, 2147483647
  %32 = icmp eq i32 %31, 1
  br i1 %32, label %33, label %_ZN32pxrInternal_v0_24__pxrReserved__7SdfPathD2Ev.exit.i.i.i

33:                                               ; preds = %20
  invoke void @_ZNK32pxrInternal_v0_24__pxrReserved__12Sdf_PathNode8_DestroyEv(ptr noundef nonnull align 8 dereferenceable(16) %28)
          to label %_ZN32pxrInternal_v0_24__pxrReserved__7SdfPathD2Ev.exit.i.i.i unwind label %34

34:                                               ; preds = %33
  %35 = landingpad { ptr, i32 }
          catch ptr null
  %36 = extractvalue { ptr, i32 } %35, 0
  call void @__clang_call_terminate(ptr %36) #21
  unreachable

_ZN32pxrInternal_v0_24__pxrReserved__7SdfPathD2Ev.exit.i.i.i: ; preds = %33, %20, %_ZN32pxrInternal_v0_24__pxrReserved__7TfTokenD2Ev.exit.i.i.i
  %37 = getelementptr inbounds nuw i8, ptr %5, i64 8
  %38 = load ptr, ptr %37, align 8
  %.not.i.i.i.i.i.i = icmp eq ptr %38, null
  br i1 %.not.i.i.i.i.i.i, label %_ZN32pxrInternal_v0_24__pxrReserved__12UsdAttributeD2Ev.exit, label %39

39:                                               ; preds = %_ZN32pxrInternal_v0_24__pxrReserved__7SdfPathD2Ev.exit.i.i.i
  %40 = getelementptr inbounds nuw i8, ptr %38, i64 48
  %41 = atomicrmw sub ptr %40, i64 1 release, align 8
  %.not1.i.i.i.i.i.i = icmp eq i64 %41, 1
  br i1 %.not1.i.i.i.i.i.i, label %42, label %_ZN32pxrInternal_v0_24__pxrReserved__12UsdAttributeD2Ev.exit

42:                                               ; preds = %39
  call void @_ZN32pxrInternal_v0_24__pxrReserved__12Usd_PrimDataD1Ev(ptr noundef nonnull align 8 dereferenceable(64) %38) #19
  call void @_ZdlPvm(ptr noundef nonnull %38, i64 noundef 64) #20
  br label %_ZN32pxrInternal_v0_24__pxrReserved__12UsdAttributeD2Ev.exit

_ZN32pxrInternal_v0_24__pxrReserved__12UsdAttributeD2Ev.exit: ; preds = %_ZN32pxrInternal_v0_24__pxrReserved__7SdfPathD2Ev.exit.i.i.i, %39, %42
  %43 = invoke noundef i64 @_ZNK32pxrInternal_v0_24__pxrReserved__7VtArrayIiE4sizeEv(ptr noundef nonnull align 8 dereferenceable(40) %4)
          to label %44 unwind label %.loopexit.split-lp

44:                                               ; preds = %_ZN32pxrInternal_v0_24__pxrReserved__12UsdAttributeD2Ev.exit
  %45 = lshr i64 %43, 1
  invoke void @_ZN32pxrInternal_v0_24__pxrReserved__7VtArrayINS_7GfVec2iEE7reserveEm(ptr noundef nonnull align 8 dereferenceable(40) %0, i64 noundef %45)
          to label %.preheader unwind label %.loopexit.split-lp

.preheader:                                       ; preds = %44
  %46 = getelementptr inbounds nuw i8, ptr %6, i64 4
  br label %47

47:                                               ; preds = %.preheader, %61
  %.0 = phi i64 [ %62, %61 ], [ 0, %.preheader ]
  %48 = invoke noundef i64 @_ZNK32pxrInternal_v0_24__pxrReserved__7VtArrayIiE4sizeEv(ptr noundef nonnull align 8 dereferenceable(40) %4)
          to label %49 unwind label %.loopexit

49:                                               ; preds = %47
  %50 = lshr i64 %48, 1
  %51 = icmp samesign ult i64 %.0, %50
  br i1 %51, label %52, label %67

52:                                               ; preds = %49
  %53 = shl nuw i64 %.0, 1
  %54 = invoke noundef nonnull align 4 dereferenceable(4) ptr @_ZN32pxrInternal_v0_24__pxrReserved__7VtArrayIiEixEm(ptr noundef nonnull align 8 dereferenceable(40) %4, i64 noundef %53)
          to label %55 unwind label %.loopexit

55:                                               ; preds = %52
  %56 = load i32, ptr %54, align 4
  %57 = or disjoint i64 %53, 1
  %58 = invoke noundef nonnull align 4 dereferenceable(4) ptr @_ZN32pxrInternal_v0_24__pxrReserved__7VtArrayIiEixEm(ptr noundef nonnull align 8 dereferenceable(40) %4, i64 noundef %57)
          to label %59 unwind label %.loopexit

59:                                               ; preds = %55
  %60 = load i32, ptr %58, align 4
  %.sroa.speculated17 = call i32 @llvm.smin.i32(i32 %60, i32 %56)
  %.sroa.speculated = call i32 @llvm.smax.i32(i32 %56, i32 %60)
  store i32 %.sroa.speculated17, ptr %6, align 4
  store i32 %.sroa.speculated, ptr %46, align 4
  invoke void @_ZN32pxrInternal_v0_24__pxrReserved__7VtArrayINS_7GfVec2iEE12emplace_backIJS1_EEEvDpOT_(ptr noundef nonnull align 8 dereferenceable(40) %0, ptr noundef nonnull align 4 dereferenceable(8) %6)
          to label %61 unwind label %.loopexit

61:                                               ; preds = %59
  %62 = add nuw nsw i64 %.0, 1
  br label %47, !llvm.loop !75

63:                                               ; preds = %3
  %64 = landingpad { ptr, i32 }
          cleanup
  br label %69

.loopexit:                                        ; preds = %47, %52, %55, %59
  %lpad.loopexit = landingpad { ptr, i32 }
          cleanup
  br label %68

.loopexit.split-lp:                               ; preds = %7, %_ZN32pxrInternal_v0_24__pxrReserved__12UsdAttributeD2Ev.exit, %44
  %lpad.loopexit.split-lp = landingpad { ptr, i32 }
          cleanup
  br label %68

65:                                               ; preds = %8
  %66 = landingpad { ptr, i32 }
          cleanup
  call void @_ZN32pxrInternal_v0_24__pxrReserved__12UsdAttributeD2Ev(ptr noundef nonnull align 8 dereferenceable(32) %5) #19
  br label %68

67:                                               ; preds = %49
  call void @_ZN32pxrInternal_v0_24__pxrReserved__7VtArrayIiED1Ev(ptr noundef nonnull align 8 dereferenceable(40) %4) #19
  ret void

68:                                               ; preds = %.loopexit, %.loopexit.split-lp, %65
  %.pn = phi { ptr, i32 } [ %66, %65 ], [ %lpad.loopexit, %.loopexit ], [ %lpad.loopexit.split-lp, %.loopexit.split-lp ]
  call void @_ZN32pxrInternal_v0_24__pxrReserved__7VtArrayIiED1Ev(ptr noundef nonnull align 8 dereferenceable(40) %4) #19
  br label %69

69:                                               ; preds = %68, %63
  %.pn.pn = phi { ptr, i32 } [ %.pn, %68 ], [ %64, %63 ]
  call void @_ZN32pxrInternal_v0_24__pxrReserved__7VtArrayINS_7GfVec2iEED1Ev(ptr noundef nonnull align 8 dereferenceable(40) %0) #19
  resume { ptr, i32 } %.pn.pn
}